; Function Attrs: mustprogress nofree norecurse nosync nounwind willreturn memory(read, argmem: readwrite, inaccessiblemem: none) uwtable
define internal noundef i32 @config_props(ptr noundef captures(none) initializes((40, 56), (96, 104), (264, 272)) %0) #4 {
  %2 = load ptr, ptr %0, align 8, !tbaa !38
  %3 = getelementptr inbounds nuw i8, ptr %2, i64 72
  %4 = load ptr, ptr %3, align 8, !tbaa !4
  %5 = getelementptr inbounds nuw i8, ptr %4, i64 8
  %6 = load i32, ptr %5, align 8, !tbaa !36
  %7 = getelementptr inbounds nuw i8, ptr %0, i64 40
  store i32 %6, ptr %7, align 8, !tbaa !64
  %8 = getelementptr inbounds nuw i8, ptr %4, i64 12
  %9 = load i32, ptr %8, align 4, !tbaa !37
  %10 = getelementptr inbounds nuw i8, ptr %0, i64 44
  store i32 %9, ptr %10, align 4, !tbaa !65
  %11 = getelementptr inbounds nuw i8, ptr %0, i64 48
  %12 = getelementptr inbounds nuw i8, ptr %4, i64 64
  %13 = load i64, ptr %12, align 8
  store i64 %13, ptr %11, align 8
  %14 = getelementptr inbounds nuw i8, ptr %0, i64 264
  %15 = getelementptr inbounds nuw i8, ptr %4, i64 36
  %16 = load i64, ptr %15, align 4
  store i64 %16, ptr %14, align 8
  %17 = getelementptr inbounds nuw i8, ptr %0, i64 96
  %18 = getelementptr inbounds nuw i8, ptr %4, i64 28
  %19 = load i64, ptr %18, align 4
  store i64 %19, ptr %17, align 8
  ret i32 0
}